target datalayout = "e-m:e-p270:32:32-p271:32:32-p272:64:64-i64:64-i128:128-f80:128-n8:16:32:64-S128"
target triple = "x86_64-pc-linux-gnu"

%struct.LLVMIntrinsics = type { i32, i32, i32, i32, i32, i32, i32, i32, i32, i32, i32, i32, i32, i32, i32, i32, i32, i32, i32, i32, i32, i32, i32, i32, i32, i32, i32, i32, i32, i32, i32, i32, i32, i32, i32, i32, i32, i32, i32, i32, i32, i32, i32, i32, i32, i32, i32, i32, i32, i32, i32, i32, i32, i32, i32, i32, i32, i32, i32, i32, i32, i32, i32, i32, i32, i32, i32, i32, i32, i32, i32, i32, i32, i32, i32, i32, i32, i32, i32, i32, i32, i32, i32, i32, i32, i32, i32, i32, i32, i32, i32, i32, i32, i32 }
%struct.BEValue = type { i8, i32, ptr, ptr, ptr }
%struct.Expr_ = type { ptr, %union.SourceSpan, i16, %union.anon.29 }
%union.SourceSpan = type { i64 }
%union.anon.29 = type { %struct.ExprAnySwitch }
%struct.ExprAnySwitch = type { i8, %union.anon.31 }
%union.anon.31 = type { %struct.anon.32 }
%struct.anon.32 = type { ptr, %union.SourceSpan, ptr }
%struct.ExprCall = type { %union.anon.33, i32, i16, ptr, %union.anon.34 }
%union.anon.33 = type { i32 }
%union.anon.34 = type { ptr }
%struct.GenContext_ = type { i8, ptr, ptr, ptr, ptr, ptr, ptr, ptr, ptr, ptr, ptr, ptr, ptr, ptr, ptr, ptr, ptr, ptr, ptr, ptr, ptr, ptr, ptr, ptr, ptr, ptr, ptr, ptr, ptr, ptr, ptr, ptr, ptr, %struct.anon.85, i32, i32, %struct.DebugContext, ptr, ptr, ptr, %struct.BEValue, i8, %union.SourceSpan, ptr, ptr, ptr, ptr }
%struct.anon.85 = type { ptr, ptr, ptr }
%struct.DebugContext = type { i16, ptr, ptr, %struct.DebugFile_, ptr, ptr, ptr, ptr }
%struct.DebugFile_ = type { i16, ptr }
%struct.Type_ = type { i32, ptr, ptr, ptr, %union.anon.101, ptr, ptr, %union.anon.103 }
%union.anon.101 = type { ptr }
%union.anon.103 = type { %struct.TypeFunction }
%struct.TypeFunction = type { ptr, ptr, ptr }
%struct.ExprConst = type { i16, %union.anon.38 }
%union.anon.38 = type { %struct.Int }
%struct.Int = type { %struct.Int128_, i32 }
%struct.Int128_ = type { i64, i64 }

@intrinsic_id = external global %struct.LLVMIntrinsics, align 4
@type_uint = external global ptr, align 8

; Function Attrs: nounwind uwtable
define internal void @llvm_emit_masked_store(ptr noundef %0, ptr noundef %1, ptr noundef %2) #0 {
  %4 = alloca ptr, align 8
  %5 = alloca i32, align 4
  %6 = alloca ptr, align 8
  %7 = alloca ptr, align 8
  %8 = alloca i64, align 8
  %9 = alloca ptr, align 8
  %10 = alloca ptr, align 8
  %11 = alloca ptr, align 8
  %12 = alloca i32, align 4
  %13 = alloca %struct.BEValue, align 8
  %14 = alloca i32, align 4
  %15 = alloca ptr, align 8
  %16 = alloca ptr, align 8
  %17 = alloca ptr, align 8
  %18 = alloca ptr, align 8
  %19 = alloca [4 x ptr], align 16
  %20 = alloca ptr, align 8
  %21 = alloca ptr, align 8
  %22 = alloca ptr, align 8
  %23 = alloca i64, align 8
  %24 = alloca [2 x ptr], align 16
  %25 = alloca ptr, align 8
  store ptr %0, ptr %15, align 8
  store ptr %1, ptr %16, align 8
  store ptr %2, ptr %17, align 8
  %26 = load ptr, ptr %17, align 8
  %27 = getelementptr inbounds %struct.Expr_, ptr %26, i32 0, i32 3
  %28 = getelementptr inbounds %struct.ExprCall, ptr %27, i32 0, i32 3
  %29 = load ptr, ptr %28, align 8
  store ptr %29, ptr %18, align 8
  %30 = load ptr, ptr %15, align 8
  %31 = load ptr, ptr %18, align 8
  %32 = getelementptr inbounds [4 x ptr], ptr %19, i64 0, i64 0
  store ptr %30, ptr %9, align 8
  store ptr %31, ptr %10, align 8
  store ptr %32, ptr %11, align 8
  store i32 3, ptr %12, align 4
  store i32 0, ptr %14, align 4
  br label %33

33:                                               ; preds = %37, %3
  %34 = load i32, ptr %14, align 4
  %35 = load i32, ptr %12, align 4
  %36 = icmp ult i32 %34, %35
  br i1 %36, label %37, label %53

37:                                               ; preds = %33
  %38 = load ptr, ptr %9, align 8
  %39 = load ptr, ptr %10, align 8
  %40 = load i32, ptr %14, align 4
  %41 = zext i32 %40 to i64
  %42 = getelementptr inbounds ptr, ptr %39, i64 %41
  %43 = load ptr, ptr %42, align 8
  call void @llvm_emit_expr(ptr noundef %38, ptr noundef %13, ptr noundef %43) #6
  %44 = load ptr, ptr %9, align 8
  call void @llvm_value_rvalue(ptr noundef %44, ptr noundef %13) #6
  %45 = getelementptr inbounds %struct.BEValue, ptr %13, i32 0, i32 3
  %46 = load ptr, ptr %45, align 8
  %47 = load ptr, ptr %11, align 8
  %48 = load i32, ptr %14, align 4
  %49 = zext i32 %48 to i64
  %50 = getelementptr inbounds ptr, ptr %47, i64 %49
  store ptr %46, ptr %50, align 8
  %51 = load i32, ptr %14, align 4
  %52 = add i32 %51, 1
  store i32 %52, ptr %14, align 4
  br label %33, !llvm.loop !33

53:                                               ; preds = %33
  %54 = getelementptr inbounds [4 x ptr], ptr %19, i64 0, i64 0
  %55 = load ptr, ptr %54, align 16
  store ptr %55, ptr %20, align 8
  %56 = getelementptr inbounds [4 x ptr], ptr %19, i64 0, i64 1
  %57 = load ptr, ptr %56, align 8
  store ptr %57, ptr %21, align 8
  %58 = getelementptr inbounds [4 x ptr], ptr %19, i64 0, i64 2
  %59 = load ptr, ptr %58, align 16
  store ptr %59, ptr %22, align 8
  %60 = load ptr, ptr %21, align 8
  %61 = getelementptr inbounds [4 x ptr], ptr %19, i64 0, i64 0
  store ptr %60, ptr %61, align 16
  %62 = load ptr, ptr %20, align 8
  %63 = getelementptr inbounds [4 x ptr], ptr %19, i64 0, i64 1
  store ptr %62, ptr %63, align 8
  %64 = load ptr, ptr %18, align 8
  %65 = getelementptr inbounds ptr, ptr %64, i64 3
  %66 = load ptr, ptr %65, align 8
  %67 = getelementptr inbounds %struct.Expr_, ptr %66, i32 0, i32 3
  %68 = getelementptr inbounds %struct.ExprConst, ptr %67, i32 0, i32 1
  %69 = getelementptr inbounds %struct.Int, ptr %68, i32 0, i32 0
  %70 = getelementptr inbounds %struct.Int128_, ptr %69, i32 0, i32 1
  %71 = load i64, ptr %70, align 8
  store i64 %71, ptr %23, align 8
  %72 = getelementptr inbounds [2 x ptr], ptr %24, i64 0, i64 0
  %73 = load ptr, ptr %21, align 8
  %74 = call ptr @LLVMTypeOf(ptr noundef %73)
  store ptr %74, ptr %72, align 8
  %75 = getelementptr inbounds ptr, ptr %72, i64 1
  %76 = load ptr, ptr %15, align 8
  %77 = getelementptr inbounds %struct.GenContext_, ptr %76, i32 0, i32 27
  %78 = load ptr, ptr %77, align 8
  store ptr %78, ptr %75, align 8
  %79 = load ptr, ptr %15, align 8
  %80 = load ptr, ptr @type_uint, align 8
  %81 = load i64, ptr %23, align 8
  %82 = icmp ne i64 %81, 0
  br i1 %82, label %83, label %85

83:                                               ; preds = %53
  %84 = load i64, ptr %23, align 8
  br label %91

85:                                               ; preds = %53
  %86 = load ptr, ptr %15, align 8
  %87 = getelementptr inbounds [2 x ptr], ptr %24, i64 0, i64 0
  %88 = load ptr, ptr %87, align 16
  %89 = call i32 @llvm_abi_alignment(ptr noundef %86, ptr noundef %88)
  %90 = zext i32 %89 to i64
  br label %91

91:                                               ; preds = %85, %83
  %92 = phi i64 [ %84, %83 ], [ %90, %85 ]
  store ptr %79, ptr %6, align 8
  store ptr %80, ptr %7, align 8
  store i64 %92, ptr %8, align 8
  %93 = load ptr, ptr %7, align 8
  %94 = call ptr @type_lowering(ptr noundef %93)
  store ptr %94, ptr %7, align 8
  %95 = load ptr, ptr %6, align 8
  %96 = load ptr, ptr %7, align 8
  %97 = call ptr @llvm_get_type(ptr noundef %95, ptr noundef %96) #6
  %98 = load i64, ptr %8, align 8
  %99 = load ptr, ptr %7, align 8
  store ptr %99, ptr %4, align 8
  %100 = load ptr, ptr %4, align 8
  %101 = load i32, ptr %100, align 8
  store i32 %101, ptr %5, align 4
  %102 = load i32, ptr %5, align 4
  %103 = icmp eq i32 %102, 31
  br i1 %103, label %104, label %109

104:                                              ; preds = %91
  %105 = load ptr, ptr %4, align 8
  %106 = getelementptr inbounds %struct.Type_, ptr %105, i32 0, i32 1
  %107 = load ptr, ptr %106, align 8
  %108 = load i32, ptr %107, align 8
  store i32 %108, ptr %5, align 4
  br label %109

109:                                              ; preds = %104, %91
  %110 = load i32, ptr %5, align 4
  %111 = icmp uge i32 %110, 3
  br i1 %111, label %112, label %115

112:                                              ; preds = %109
  %113 = load i32, ptr %5, align 4
  %114 = icmp ule i32 %113, 7
  br label %115

115:                                              ; preds = %112, %109
  %116 = phi i1 [ false, %109 ], [ %114, %112 ]
  %117 = zext i1 %116 to i32
  %118 = call ptr @LLVMConstInt(ptr noundef %97, i64 noundef %98, i32 noundef %117) #6
  %119 = getelementptr inbounds [4 x ptr], ptr %19, i64 0, i64 2
  store ptr %118, ptr %119, align 16
  %120 = load ptr, ptr %22, align 8
  %121 = getelementptr inbounds [4 x ptr], ptr %19, i64 0, i64 3
  store ptr %120, ptr %121, align 8
  %122 = load ptr, ptr %15, align 8
  %123 = load i32, ptr getelementptr inbounds (%struct.LLVMIntrinsics, ptr @intrinsic_id, i32 0, i32 37), align 4
  %124 = getelementptr inbounds [2 x ptr], ptr %24, i64 0, i64 0
  %125 = getelementptr inbounds [4 x ptr], ptr %19, i64 0, i64 0
  %126 = call ptr @llvm_emit_call_intrinsic(ptr noundef %122, i32 noundef %123, ptr noundef %124, i32 noundef 2, ptr noundef %125, i32 noundef 4)
  store ptr %126, ptr %25, align 8
  %127 = load ptr, ptr %16, align 8
  %128 = load ptr, ptr %25, align 8
  %129 = load ptr, ptr %17, align 8
  %130 = getelementptr inbounds %struct.Expr_, ptr %129, i32 0, i32 0
  %131 = load ptr, ptr %130, align 8
  call void @llvm_value_set(ptr noundef %127, ptr noundef %128, ptr noundef %131)
  ret void
}