; Function Attrs: nounwind uwtable
define internal fastcc void @llvm_emit_masked_store(ptr noundef %0, ptr noundef %1, ptr nocapture noundef readonly %2) unnamed_addr #0 {
  %4 = alloca %struct.BEValue, align 8
  %5 = alloca [4 x ptr], align 16
  %6 = alloca [2 x ptr], align 16
  %7 = getelementptr inbounds i8, ptr %2, i64 40
  %8 = load ptr, ptr %7, align 8
  %9 = getelementptr inbounds i8, ptr %4, i64 16
  br label %10

10:                                               ; preds = %3, %10
  %indvars.iv = phi i64 [ 0, %3 ], [ %indvars.iv.next, %10 ]
  %11 = getelementptr inbounds ptr, ptr %8, i64 %indvars.iv
  %12 = load ptr, ptr %11, align 8
  call void @llvm_emit_expr(ptr noundef %0, ptr noundef nonnull %4, ptr noundef %12) #8
  call void @llvm_value_rvalue(ptr noundef %0, ptr noundef nonnull %4) #8
  %13 = load ptr, ptr %9, align 8
  %14 = getelementptr inbounds ptr, ptr %5, i64 %indvars.iv
  store ptr %13, ptr %14, align 8
  %indvars.iv.next = add nuw nsw i64 %indvars.iv, 1
  %exitcond.not = icmp eq i64 %indvars.iv.next, 3
  br i1 %exitcond.not, label %15, label %10, !llvm.loop !28

15:                                               ; preds = %10
  %16 = load ptr, ptr %5, align 16
  %17 = getelementptr inbounds i8, ptr %5, i64 8
  %18 = load ptr, ptr %17, align 8
  %19 = getelementptr inbounds i8, ptr %5, i64 16
  %20 = load ptr, ptr %19, align 16
  store ptr %18, ptr %5, align 16
  store ptr %16, ptr %17, align 8
  %21 = getelementptr inbounds i8, ptr %8, i64 24
  %22 = load ptr, ptr %21, align 8
  %23 = getelementptr inbounds i8, ptr %22, i64 40
  %24 = load i64, ptr %23, align 8
  %25 = call ptr @LLVMTypeOf(ptr noundef %18) #8
  store ptr %25, ptr %6, align 16
  %26 = getelementptr inbounds i8, ptr %6, i64 8
  %27 = getelementptr inbounds i8, ptr %0, i64 216
  %28 = load ptr, ptr %27, align 8
  store ptr %28, ptr %26, align 8
  %29 = load ptr, ptr @type_uint, align 8
  %.not = icmp eq i64 %24, 0
  br i1 %.not, label %30, label %33

30:                                               ; preds = %15
  %31 = call i32 @llvm_abi_alignment(ptr noundef nonnull %0, ptr noundef %25) #8
  %32 = zext i32 %31 to i64
  br label %33

33:                                               ; preds = %15, %30
  %34 = phi i64 [ %32, %30 ], [ %24, %15 ]
  %35 = call fastcc ptr @type_lowering(ptr noundef %29)
  %36 = call ptr @llvm_get_type(ptr noundef nonnull %0, ptr noundef %35) #8
  %37 = load i32, ptr %35, align 8
  %38 = icmp eq i32 %37, 31
  br i1 %38, label %39, label %43

39:                                               ; preds = %33
  %40 = getelementptr inbounds i8, ptr %35, i64 8
  %41 = load ptr, ptr %40, align 8
  %42 = load i32, ptr %41, align 8
  br label %43

43:                                               ; preds = %39, %33
  %.0 = phi i32 [ %42, %39 ], [ %37, %33 ]
  %44 = add i32 %.0, -3
  %45 = icmp ult i32 %44, 5
  %46 = zext i1 %45 to i32
  %47 = call ptr @LLVMConstInt(ptr noundef %36, i64 noundef %34, i32 noundef %46) #8
  store ptr %47, ptr %19, align 16
  %48 = getelementptr inbounds i8, ptr %5, i64 24
  store ptr %20, ptr %48, align 8
  %49 = load i32, ptr getelementptr inbounds (%struct.LLVMIntrinsics, ptr @intrinsic_id, i64 0, i32 37), align 4
  %50 = call ptr @llvm_emit_call_intrinsic(ptr noundef nonnull %0, i32 noundef %49, ptr noundef nonnull %6, i32 noundef 2, ptr noundef nonnull %5, i32 noundef 4) #8
  %51 = load ptr, ptr %2, align 8
  call void @llvm_value_set(ptr noundef %1, ptr noundef %50, ptr noundef %51) #8
  ret void
}